; Function Attrs: mustprogress uwtable
define hidden noundef ptr @_ZN7datalog11udoc_plugin12mk_rename_fnERKNS_13relation_baseEjPKj(ptr noundef nonnull readnone align 8 captures(address) dereferenceable(129) %0, ptr noundef nonnull align 8 dereferenceable(28) %1, i32 noundef %2, ptr noundef %3) unnamed_addr #3 align 2 {
  %5 = getelementptr inbounds nuw i8, ptr %1, i64 8
  %6 = load ptr, ptr %5, align 8, !tbaa !167
  %7 = icmp eq ptr %6, %0
  br i1 %7, label %8, label %13

8:                                                ; preds = %4
  %9 = tail call noalias noundef ptr @_ZN6memory8allocateEm(i64 noundef 32)
  %10 = tail call ptr @__dynamic_cast(ptr nonnull readonly align 8 dereferenceable(28) %1, ptr nonnull @_ZTIN7datalog13relation_baseE, ptr nonnull @_ZTIN7datalog13udoc_relationE, i64 0) #24
  %11 = icmp eq ptr %10, null
  br i1 %11, label %12, label %_ZN7datalog11udoc_plugin3getERKNS_13relation_baseE.exit

12:                                               ; preds = %8
  tail call void @__cxa_bad_cast() #25
  unreachable

_ZN7datalog11udoc_plugin3getERKNS_13relation_baseE.exit: ; preds = %8
  tail call void @_ZN7datalog11udoc_plugin9rename_fnC2ERKNS_13udoc_relationEjPKj(ptr noundef nonnull align 8 dereferenceable(32) %9, ptr noundef nonnull align 8 dereferenceable(128) %10, i32 noundef %2, ptr noundef %3)
  br label %13

13:                                               ; preds = %4, %_ZN7datalog11udoc_plugin3getERKNS_13relation_baseE.exit
  %.0 = phi ptr [ %9, %_ZN7datalog11udoc_plugin3getERKNS_13relation_baseE.exit ], [ null, %4 ]
  ret ptr %.0
}